target datalayout = "e-m:e-p270:32:32-p271:32:32-p272:64:64-i64:64-i128:128-f80:128-n8:16:32:64-S128"
target triple = "x86_64-pc-linux-gnu"

%struct.lv_ll_t = type { i32, ptr, ptr }
%struct._lv_ime_pinyin_t = type { %struct._lv_obj_t, ptr, ptr, ptr, %struct.lv_ll_t, ptr, [16 x i8], [8 x i8], i16, i16, i16, i16, i16, i16, [26 x i16], [26 x i16], i32 }
%struct._lv_obj_t = type { ptr, ptr, ptr, ptr, ptr, %struct.lv_area_t, i32, i16, i16 }
%struct.lv_area_t = type { i32, i32, i32, i32 }
%struct.ime_pinyin_k9_py_str_t = type { [7 x i8] }

@.str.18 = private unnamed_addr constant [2 x i8] zeroinitializer, align 1
@lv_pinyin_k9_cand_str = internal global [5 x [7 x i8]] zeroinitializer, align 16
@.str.659 = private unnamed_addr constant [2 x i8] c" \00", align 1
@.str.660 = private unnamed_addr constant [5 x i8] c"\EF\81\94\00\00", align 1

; Function Attrs: inlinehint nounwind uwtable
define internal void @lv_memzero(ptr noundef %0, i64 noundef %1) #3 {
  %3 = alloca ptr, align 8
  %4 = alloca i64, align 8
  store ptr %0, ptr %3, align 8, !tbaa !41
  store i64 %1, ptr %4, align 8, !tbaa !47
  %5 = load ptr, ptr %3, align 8, !tbaa !41
  %6 = load i64, ptr %4, align 8, !tbaa !47
  call void @lv_memset(ptr noundef %5, i8 noundef zeroext 0, i64 noundef %6)
  ret void
}

; Function Attrs: nounwind uwtable
define internal void @pinyin_k9_cand_page_proc(ptr noundef %0, i16 noundef zeroext %1) #0 {
  %3 = alloca ptr, align 8
  %4 = alloca i16, align 2
  %5 = alloca ptr, align 8
  %6 = alloca ptr, align 8
  %7 = alloca i16, align 2
  %8 = alloca ptr, align 8
  %9 = alloca i32, align 4
  %10 = alloca i32, align 4
  %11 = alloca i8, align 1
  %12 = alloca i8, align 1
  store ptr %0, ptr %3, align 8, !tbaa !8
  store i16 %1, ptr %4, align 2, !tbaa !12
  call void @llvm.lifetime.start.p0(i64 8, ptr %5) #6
  %13 = load ptr, ptr %3, align 8, !tbaa !8
  store ptr %13, ptr %5, align 8, !tbaa !10
  call void @llvm.lifetime.start.p0(i64 8, ptr %6) #6
  %14 = load ptr, ptr %5, align 8, !tbaa !10
  %15 = getelementptr inbounds nuw %struct._lv_ime_pinyin_t, ptr %14, i32 0, i32 1
  %16 = load ptr, ptr %15, align 8, !tbaa !34
  %17 = call ptr @lv_keyboard_get_textarea(ptr noundef %16)
  store ptr %17, ptr %6, align 8, !tbaa !8
  call void @llvm.lifetime.start.p0(i64 2, ptr %7) #6
  %18 = load ptr, ptr %5, align 8, !tbaa !10
  %19 = getelementptr inbounds nuw %struct._lv_ime_pinyin_t, ptr %18, i32 0, i32 4
  %20 = call i32 @lv_ll_get_len(ptr noundef %19)
  %21 = trunc i32 %20 to i16
  store i16 %21, ptr %7, align 2, !tbaa !12
  %22 = load i16, ptr %7, align 2, !tbaa !12
  %23 = zext i16 %22 to i32
  %24 = icmp sgt i32 %23, 3
  br i1 %24, label %25, label %175

25:                                               ; preds = %2
  %26 = load ptr, ptr %5, align 8, !tbaa !10
  %27 = getelementptr inbounds nuw %struct._lv_ime_pinyin_t, ptr %26, i32 0, i32 9
  %28 = load i16, ptr %27, align 2, !tbaa !33
  %29 = zext i16 %28 to i32
  %30 = icmp sgt i32 %29, 3
  br i1 %30, label %31, label %175

31:                                               ; preds = %25
  call void @llvm.lifetime.start.p0(i64 8, ptr %8) #6
  store ptr null, ptr %8, align 8, !tbaa !41
  call void @llvm.lifetime.start.p0(i64 4, ptr %9) #6
  store i32 0, ptr %9, align 4, !tbaa !37
  %32 = load ptr, ptr %5, align 8, !tbaa !10
  %33 = getelementptr inbounds nuw %struct._lv_ime_pinyin_t, ptr %32, i32 0, i32 4
  %34 = call ptr @lv_ll_get_head(ptr noundef %33)
  store ptr %34, ptr %8, align 8, !tbaa !41
  br label %35

35:                                               ; preds = %46, %31
  %36 = load ptr, ptr %8, align 8, !tbaa !41
  %37 = icmp ne ptr %36, null
  br i1 %37, label %38, label %53

38:                                               ; preds = %35
  %39 = load i32, ptr %9, align 4, !tbaa !37
  %40 = load ptr, ptr %5, align 8, !tbaa !10
  %41 = getelementptr inbounds nuw %struct._lv_ime_pinyin_t, ptr %40, i32 0, i32 8
  %42 = load i16, ptr %41, align 8, !tbaa !32
  %43 = zext i16 %42 to i32
  %44 = icmp sge i32 %39, %43
  br i1 %44, label %45, label %46

45:                                               ; preds = %38
  br label %53

46:                                               ; preds = %38
  %47 = load ptr, ptr %5, align 8, !tbaa !10
  %48 = getelementptr inbounds nuw %struct._lv_ime_pinyin_t, ptr %47, i32 0, i32 4
  %49 = load ptr, ptr %8, align 8, !tbaa !41
  %50 = call ptr @lv_ll_get_next(ptr noundef %48, ptr noundef %49)
  store ptr %50, ptr %8, align 8, !tbaa !41
  %51 = load i32, ptr %9, align 4, !tbaa !37
  %52 = add nsw i32 %51, 1
  store i32 %52, ptr %9, align 4, !tbaa !37
  br label %35, !llvm.loop !85

53:                                               ; preds = %45, %35
  %54 = load ptr, ptr %8, align 8, !tbaa !41
  %55 = icmp eq ptr null, %54
  br i1 %55, label %56, label %61

56:                                               ; preds = %53
  %57 = load i16, ptr %4, align 2, !tbaa !12
  %58 = zext i16 %57 to i32
  %59 = icmp eq i32 %58, 1
  br i1 %59, label %60, label %61

60:                                               ; preds = %56
  store i32 1, ptr %10, align 4
  br label %172

61:                                               ; preds = %56, %53
  call void @lv_memzero(ptr noundef @lv_pinyin_k9_cand_str, i64 noundef 35)
  %62 = call ptr @lv_strcpy(ptr noundef getelementptr inbounds ([5 x [7 x i8]], ptr @lv_pinyin_k9_cand_str, i64 0, i64 3), ptr noundef @.str.660)
  %63 = call ptr @lv_strcpy(ptr noundef getelementptr inbounds ([5 x [7 x i8]], ptr @lv_pinyin_k9_cand_str, i64 0, i64 4), ptr noundef @.str.18)
  %64 = load i16, ptr %4, align 2, !tbaa !12
  %65 = zext i16 %64 to i32
  %66 = icmp eq i32 %65, 1
  br i1 %66, label %67, label %114

67:                                               ; preds = %61
  call void @llvm.lifetime.start.p0(i64 1, ptr %11) #6
  store i8 0, ptr %11, align 1, !tbaa !16
  br label %68

68:                                               ; preds = %79, %67
  %69 = load i8, ptr %11, align 1, !tbaa !16
  %70 = zext i8 %69 to i32
  %71 = icmp slt i32 %70, 3
  br i1 %71, label %73, label %72

72:                                               ; preds = %68
  store i32 4, ptr %10, align 4
  call void @llvm.lifetime.end.p0(i64 1, ptr %11) #6
  br label %82

73:                                               ; preds = %68
  %74 = load i8, ptr %11, align 1, !tbaa !16
  %75 = zext i8 %74 to i64
  %76 = getelementptr inbounds nuw [5 x [7 x i8]], ptr @lv_pinyin_k9_cand_str, i64 0, i64 %75
  %77 = getelementptr inbounds [7 x i8], ptr %76, i64 0, i64 0
  %78 = call ptr @lv_strcpy(ptr noundef %77, ptr noundef @.str.659)
  br label %79

79:                                               ; preds = %73
  %80 = load i8, ptr %11, align 1, !tbaa !16
  %81 = add i8 %80, 1
  store i8 %81, ptr %11, align 1, !tbaa !16
  br label %68, !llvm.loop !86

82:                                               ; preds = %72
  store i32 0, ptr %9, align 4, !tbaa !37
  br label %83

83:                                               ; preds = %90, %82
  %84 = load ptr, ptr %8, align 8, !tbaa !41
  %85 = icmp ne ptr %84, null
  br i1 %85, label %86, label %105

86:                                               ; preds = %83
  %87 = load i32, ptr %9, align 4, !tbaa !37
  %88 = icmp sge i32 %87, 2
  br i1 %88, label %89, label %90

89:                                               ; preds = %86
  br label %105

90:                                               ; preds = %86
  %91 = load i32, ptr %9, align 4, !tbaa !37
  %92 = sext i32 %91 to i64
  %93 = getelementptr inbounds [5 x [7 x i8]], ptr @lv_pinyin_k9_cand_str, i64 0, i64 %92
  %94 = getelementptr inbounds [7 x i8], ptr %93, i64 0, i64 0
  %95 = load ptr, ptr %8, align 8, !tbaa !41
  %96 = getelementptr inbounds nuw %struct.ime_pinyin_k9_py_str_t, ptr %95, i32 0, i32 0
  %97 = getelementptr inbounds [7 x i8], ptr %96, i64 0, i64 0
  %98 = call ptr @lv_strcpy(ptr noundef %94, ptr noundef %97)
  %99 = load ptr, ptr %5, align 8, !tbaa !10
  %100 = getelementptr inbounds nuw %struct._lv_ime_pinyin_t, ptr %99, i32 0, i32 4
  %101 = load ptr, ptr %8, align 8, !tbaa !41
  %102 = call ptr @lv_ll_get_next(ptr noundef %100, ptr noundef %101)
  store ptr %102, ptr %8, align 8, !tbaa !41
  %103 = load i32, ptr %9, align 4, !tbaa !37
  %104 = add nsw i32 %103, 1
  store i32 %104, ptr %9, align 4, !tbaa !37
  br label %83, !llvm.loop !87

105:                                              ; preds = %89, %83
  %106 = load i32, ptr %9, align 4, !tbaa !37
  %107 = sub nsw i32 %106, 1
  %108 = load ptr, ptr %5, align 8, !tbaa !10
  %109 = getelementptr inbounds nuw %struct._lv_ime_pinyin_t, ptr %108, i32 0, i32 8
  %110 = load i16, ptr %109, align 8, !tbaa !32
  %111 = zext i16 %110 to i32
  %112 = add nsw i32 %111, %107
  %113 = trunc i32 %112 to i16
  store i16 %113, ptr %109, align 8, !tbaa !32
  br label %170

114:                                              ; preds = %61
  call void @llvm.lifetime.start.p0(i64 1, ptr %12) #6
  store i8 0, ptr %12, align 1, !tbaa !16
  br label %115

115:                                              ; preds = %126, %114
  %116 = load i8, ptr %12, align 1, !tbaa !16
  %117 = zext i8 %116 to i32
  %118 = icmp slt i32 %117, 3
  br i1 %118, label %120, label %119

119:                                              ; preds = %115
  store i32 9, ptr %10, align 4
  call void @llvm.lifetime.end.p0(i64 1, ptr %12) #6
  br label %129

120:                                              ; preds = %115
  %121 = load i8, ptr %12, align 1, !tbaa !16
  %122 = zext i8 %121 to i64
  %123 = getelementptr inbounds nuw [5 x [7 x i8]], ptr @lv_pinyin_k9_cand_str, i64 0, i64 %122
  %124 = getelementptr inbounds [7 x i8], ptr %123, i64 0, i64 0
  %125 = call ptr @lv_strcpy(ptr noundef %124, ptr noundef @.str.659)
  br label %126

126:                                              ; preds = %120
  %127 = load i8, ptr %12, align 1, !tbaa !16
  %128 = add i8 %127, 1
  store i8 %128, ptr %12, align 1, !tbaa !16
  br label %115, !llvm.loop !88

129:                                              ; preds = %119
  store i32 2, ptr %9, align 4, !tbaa !37
  %130 = load ptr, ptr %5, align 8, !tbaa !10
  %131 = getelementptr inbounds nuw %struct._lv_ime_pinyin_t, ptr %130, i32 0, i32 4
  %132 = load ptr, ptr %8, align 8, !tbaa !41
  %133 = call ptr @lv_ll_get_prev(ptr noundef %131, ptr noundef %132)
  store ptr %133, ptr %8, align 8, !tbaa !41
  br label %134

134:                                              ; preds = %141, %129
  %135 = load ptr, ptr %8, align 8, !tbaa !41
  %136 = icmp ne ptr %135, null
  br i1 %136, label %137, label %156

137:                                              ; preds = %134
  %138 = load i32, ptr %9, align 4, !tbaa !37
  %139 = icmp slt i32 %138, 0
  br i1 %139, label %140, label %141

140:                                              ; preds = %137
  br label %156

141:                                              ; preds = %137
  %142 = load i32, ptr %9, align 4, !tbaa !37
  %143 = sext i32 %142 to i64
  %144 = getelementptr inbounds [5 x [7 x i8]], ptr @lv_pinyin_k9_cand_str, i64 0, i64 %143
  %145 = getelementptr inbounds [7 x i8], ptr %144, i64 0, i64 0
  %146 = load ptr, ptr %8, align 8, !tbaa !41
  %147 = getelementptr inbounds nuw %struct.ime_pinyin_k9_py_str_t, ptr %146, i32 0, i32 0
  %148 = getelementptr inbounds [7 x i8], ptr %147, i64 0, i64 0
  %149 = call ptr @lv_strcpy(ptr noundef %145, ptr noundef %148)
  %150 = load ptr, ptr %5, align 8, !tbaa !10
  %151 = getelementptr inbounds nuw %struct._lv_ime_pinyin_t, ptr %150, i32 0, i32 4
  %152 = load ptr, ptr %8, align 8, !tbaa !41
  %153 = call ptr @lv_ll_get_prev(ptr noundef %151, ptr noundef %152)
  store ptr %153, ptr %8, align 8, !tbaa !41
  %154 = load i32, ptr %9, align 4, !tbaa !37
  %155 = add nsw i32 %154, -1
  store i32 %155, ptr %9, align 4, !tbaa !37
  br label %134, !llvm.loop !89

156:                                              ; preds = %140, %134
  %157 = load ptr, ptr %5, align 8, !tbaa !10
  %158 = getelementptr inbounds nuw %struct._lv_ime_pinyin_t, ptr %157, i32 0, i32 8
  %159 = load i16, ptr %158, align 8, !tbaa !32
  %160 = zext i16 %159 to i32
  %161 = icmp sgt i32 %160, 3
  br i1 %161, label %162, label %169

162:                                              ; preds = %156
  %163 = load ptr, ptr %5, align 8, !tbaa !10
  %164 = getelementptr inbounds nuw %struct._lv_ime_pinyin_t, ptr %163, i32 0, i32 8
  %165 = load i16, ptr %164, align 8, !tbaa !32
  %166 = zext i16 %165 to i32
  %167 = sub nsw i32 %166, 1
  %168 = trunc i32 %167 to i16
  store i16 %168, ptr %164, align 8, !tbaa !32
  br label %169

169:                                              ; preds = %162, %156
  br label %170

170:                                              ; preds = %169, %105
  %171 = load ptr, ptr %6, align 8, !tbaa !8
  call void @lv_textarea_set_cursor_pos(ptr noundef %171, i32 noundef 32767)
  store i32 0, ptr %10, align 4
  br label %172

172:                                              ; preds = %170, %60
  call void @llvm.lifetime.end.p0(i64 4, ptr %9) #6
  call void @llvm.lifetime.end.p0(i64 8, ptr %8) #6
  %173 = load i32, ptr %10, align 4
  switch i32 %173, label %176 [
    i32 0, label %174
  ]

174:                                              ; preds = %172
  br label %175

175:                                              ; preds = %174, %25, %2
  store i32 0, ptr %10, align 4
  br label %176

176:                                              ; preds = %175, %172
  call void @llvm.lifetime.end.p0(i64 2, ptr %7) #6
  call void @llvm.lifetime.end.p0(i64 8, ptr %6) #6
  call void @llvm.lifetime.end.p0(i64 8, ptr %5) #6
  %177 = load i32, ptr %10, align 4
  switch i32 %177, label %179 [
    i32 0, label %178
    i32 1, label %178
  ]

178:                                              ; preds = %176, %176
  ret void

179:                                              ; preds = %176
  unreachable
}