; Function Attrs: nounwind uwtable
define internal fastcc void @pinyin_k9_cand_page_proc(ptr noundef %0, i16 noundef zeroext range(i16 0, 2) %1) unnamed_addr #0 {
  %3 = getelementptr inbounds nuw i8, ptr %0, i64 64
  %4 = load ptr, ptr %3, align 8, !tbaa !36
  %5 = tail call ptr @lv_keyboard_get_textarea(ptr noundef %4) #6
  %6 = getelementptr inbounds nuw i8, ptr %0, i64 88
  %7 = tail call i32 @lv_ll_get_len(ptr noundef nonnull %6) #6
  %8 = and i32 %7, 65532
  %.not = icmp eq i32 %8, 0
  br i1 %.not, label %.critedge, label %9

9:                                                ; preds = %2
  %10 = getelementptr inbounds nuw i8, ptr %0, i64 146
  %11 = load i16, ptr %10, align 2, !tbaa !33
  %12 = icmp ugt i16 %11, 3
  br i1 %12, label %13, label %.critedge

13:                                               ; preds = %9
  %14 = tail call ptr @lv_ll_get_head(ptr noundef nonnull %6) #6
  %.not5566 = icmp eq ptr %14, null
  br i1 %.not5566, label %._crit_edge, label %.lr.ph

.lr.ph:                                           ; preds = %13
  %15 = getelementptr inbounds nuw i8, ptr %0, i64 144
  br label %16

16:                                               ; preds = %.lr.ph, %22
  %.05068 = phi i32 [ 0, %.lr.ph ], [ %24, %22 ]
  %.05167 = phi ptr [ %14, %.lr.ph ], [ %23, %22 ]
  %17 = load i16, ptr %15, align 8, !tbaa !32
  %18 = zext i16 %17 to i32
  %.not56 = icmp samesign ult i32 %.05068, %18
  br i1 %.not56, label %22, label %.thread

.thread:                                          ; preds = %16
  %19 = icmp eq i16 %1, 0
  tail call void @lv_memset(ptr noundef nonnull @lv_pinyin_k9_cand_str, i8 noundef zeroext 0, i64 noundef 35) #6
  %20 = tail call ptr @lv_strcpy(ptr noundef nonnull getelementptr inbounds nuw (i8, ptr @lv_pinyin_k9_cand_str, i64 21), ptr noundef nonnull @.str.660) #6
  %21 = tail call ptr @lv_strcpy(ptr noundef nonnull getelementptr inbounds nuw (i8, ptr @lv_pinyin_k9_cand_str, i64 28), ptr noundef nonnull @.str.18) #6
  br i1 %19, label %.preheader, label %.preheader63

22:                                               ; preds = %16
  %23 = tail call ptr @lv_ll_get_next(ptr noundef nonnull %6, ptr noundef nonnull %.05167) #6
  %24 = add nuw nsw i32 %.05068, 1
  %.not55 = icmp eq ptr %23, null
  br i1 %.not55, label %._crit_edge, label %16, !llvm.loop !78

._crit_edge:                                      ; preds = %22, %13
  %25 = icmp eq i16 %1, 0
  br i1 %25, label %.critedge61, label %.critedge

.preheader63:                                     ; preds = %.thread, %.preheader63
  %indvars.iv = phi i64 [ %indvars.iv.next, %.preheader63 ], [ 0, %.thread ]
  %26 = getelementptr inbounds nuw [5 x [7 x i8]], ptr @lv_pinyin_k9_cand_str, i64 0, i64 %indvars.iv
  %27 = tail call ptr @lv_strcpy(ptr noundef nonnull %26, ptr noundef nonnull @.str.659) #6
  %indvars.iv.next = add nuw nsw i64 %indvars.iv, 1
  %exitcond.not = icmp eq i64 %indvars.iv.next, 3
  br i1 %exitcond.not, label %.preheader62, label %.preheader63, !llvm.loop !79

.preheader62:                                     ; preds = %.preheader63, %.preheader62
  %28 = phi i1 [ true, %.preheader62 ], [ false, %.preheader63 ]
  %indvars.iv81 = phi i64 [ 1, %.preheader62 ], [ 0, %.preheader63 ]
  %.15270 = phi ptr [ %31, %.preheader62 ], [ %.05167, %.preheader63 ]
  %29 = getelementptr inbounds nuw [5 x [7 x i8]], ptr @lv_pinyin_k9_cand_str, i64 0, i64 %indvars.iv81
  %30 = tail call ptr @lv_strcpy(ptr noundef nonnull %29, ptr noundef nonnull %.15270) #6
  %31 = tail call ptr @lv_ll_get_next(ptr noundef nonnull %6, ptr noundef nonnull %.15270) #6
  %32 = icmp eq ptr %31, null
  %or.cond4 = or i1 %32, %28
  br i1 %or.cond4, label %33, label %.preheader62, !llvm.loop !80

33:                                               ; preds = %.preheader62
  %34 = load i16, ptr %15, align 8, !tbaa !32
  %35 = trunc nuw nsw i64 %indvars.iv81 to i16
  %36 = add i16 %34, %35
  store i16 %36, ptr %15, align 8, !tbaa !32
  br label %55

.critedge61:                                      ; preds = %._crit_edge
  tail call void @lv_memset(ptr noundef nonnull @lv_pinyin_k9_cand_str, i8 noundef zeroext 0, i64 noundef 35) #6
  %37 = tail call ptr @lv_strcpy(ptr noundef nonnull getelementptr inbounds nuw (i8, ptr @lv_pinyin_k9_cand_str, i64 21), ptr noundef nonnull @.str.660) #6
  %38 = tail call ptr @lv_strcpy(ptr noundef nonnull getelementptr inbounds nuw (i8, ptr @lv_pinyin_k9_cand_str, i64 28), ptr noundef nonnull @.str.18) #6
  br label %.preheader

.preheader:                                       ; preds = %.thread, %.critedge61
  %.05165 = phi ptr [ %.05167, %.thread ], [ null, %.critedge61 ]
  br label %42

39:                                               ; preds = %42
  %40 = tail call ptr @lv_ll_get_prev(ptr noundef nonnull %6, ptr noundef %.05165) #6
  %41 = icmp eq ptr %40, null
  br i1 %41, label %._crit_edge77, label %.lr.ph76

42:                                               ; preds = %.preheader, %42
  %indvars.iv84 = phi i64 [ 0, %.preheader ], [ %indvars.iv.next85, %42 ]
  %43 = getelementptr inbounds nuw [5 x [7 x i8]], ptr @lv_pinyin_k9_cand_str, i64 0, i64 %indvars.iv84
  %44 = tail call ptr @lv_strcpy(ptr noundef nonnull %43, ptr noundef nonnull @.str.659) #6
  %indvars.iv.next85 = add nuw nsw i64 %indvars.iv84, 1
  %exitcond87.not = icmp eq i64 %indvars.iv.next85, 3
  br i1 %exitcond87.not, label %39, label %42, !llvm.loop !81

.lr.ph76:                                         ; preds = %39, %.lr.ph76
  %indvars.iv88 = phi i64 [ %indvars.iv.next89, %.lr.ph76 ], [ 2, %39 ]
  %.25373 = phi ptr [ %47, %.lr.ph76 ], [ %40, %39 ]
  %45 = getelementptr inbounds nuw [5 x [7 x i8]], ptr @lv_pinyin_k9_cand_str, i64 0, i64 %indvars.iv88
  %46 = tail call ptr @lv_strcpy(ptr noundef nonnull %45, ptr noundef nonnull %.25373) #6
  %47 = tail call ptr @lv_ll_get_prev(ptr noundef nonnull %6, ptr noundef nonnull %.25373) #6
  %indvars.iv.next89 = add nsw i64 %indvars.iv88, -1
  %48 = icmp eq ptr %47, null
  %49 = icmp eq i64 %indvars.iv88, 0
  %or.cond6 = or i1 %48, %49
  br i1 %or.cond6, label %._crit_edge77, label %.lr.ph76, !llvm.loop !82

._crit_edge77:                                    ; preds = %.lr.ph76, %39
  %50 = getelementptr inbounds nuw i8, ptr %0, i64 144
  %51 = load i16, ptr %50, align 8, !tbaa !32
  %52 = icmp ugt i16 %51, 3
  br i1 %52, label %53, label %55

53:                                               ; preds = %._crit_edge77
  %54 = add i16 %51, -1
  store i16 %54, ptr %50, align 8, !tbaa !32
  br label %55

55:                                               ; preds = %._crit_edge77, %53, %33
  tail call void @lv_textarea_set_cursor_pos(ptr noundef %5, i32 noundef 32767) #6
  br label %.critedge

.critedge:                                        ; preds = %55, %._crit_edge, %2, %9
  ret void
}